target datalayout = "e-m:e-p270:32:32-p271:32:32-p272:64:64-i64:64-i128:128-f80:128-n8:16:32:64-S128"
target triple = "x86_64-pc-linux-gnu"

@currentlyReindexedIndex = internal global i32 0, align 4
@pendingReindexedIndexes = internal global ptr null, align 8

; Function Attrs: nounwind uwtable
define dso_local zeroext i1 @ReindexIsProcessingIndex(i32 noundef %0) #0 {
  %2 = alloca i32, align 4
  store i32 %0, ptr %2, align 4
  %3 = load i32, ptr %2, align 4
  %4 = load i32, ptr @currentlyReindexedIndex, align 4
  %5 = icmp eq i32 %3, %4
  br i1 %5, label %10, label %6

6:                                                ; preds = %1
  %7 = load ptr, ptr @pendingReindexedIndexes, align 8
  %8 = load i32, ptr %2, align 4
  %9 = call zeroext i1 @list_member_oid(ptr noundef %7, i32 noundef %8)
  br label %10

10:                                               ; preds = %6, %1
  %11 = phi i1 [ true, %1 ], [ %9, %6 ]
  ret i1 %11
}