; Function Attrs: nounwind uwtable
define dso_local zeroext i1 @ReindexIsProcessingIndex(i32 noundef %0) local_unnamed_addr #0 {
  %2 = load i32, ptr @currentlyReindexedIndex, align 4
  %3 = icmp eq i32 %0, %2
  br i1 %3, label %7, label %4

4:                                                ; preds = %1
  %5 = load ptr, ptr @pendingReindexedIndexes, align 8
  %6 = tail call zeroext i1 @list_member_oid(ptr noundef %5, i32 noundef %0) #11
  br label %7

7:                                                ; preds = %4, %1
  %8 = phi i1 [ true, %1 ], [ %6, %4 ]
  ret i1 %8
}